target datalayout = "e-m:e-p270:32:32-p271:32:32-p272:64:64-i64:64-i128:128-f80:128-n8:16:32:64-S128"
target triple = "x86_64-pc-linux-gnu"

%struct.gmx_wallcycle = type <{ %"struct.gmx::EnumerationArray", i64, %"struct.gmx::EnumerationArray.2", ptr, %"class.std::vector", i32, i32, i64, i8, i8, %"struct.std::array", i8, i32, i8, [7 x i8] }>
%"struct.gmx::EnumerationArray" = type { [52 x %struct.wallcc_t] }
%struct.wallcc_t = type { i32, i64, i64 }
%"struct.gmx::EnumerationArray.2" = type { [41 x %struct.wallcc_t] }
%"class.std::vector" = type { %"struct.std::_Vector_base" }
%"struct.std::_Vector_base" = type { %"struct.std::_Vector_base<wallcc_t, std::allocator<wallcc_t>>::_Vector_impl" }
%"struct.std::_Vector_base<wallcc_t, std::allocator<wallcc_t>>::_Vector_impl" = type { %"struct.std::_Vector_base<wallcc_t, std::allocator<wallcc_t>>::_Vector_impl_data" }
%"struct.std::_Vector_base<wallcc_t, std::allocator<wallcc_t>>::_Vector_impl_data" = type { ptr, ptr, ptr }
%"struct.std::array" = type { %"struct.std::__array_traits<WallCycleCounter, 0>::_Type" }
%"struct.std::__array_traits<WallCycleCounter, 0>::_Type" = type { i8 }

; Function Attrs: mustprogress nounwind uwtable
define void @_Z25wcycle_set_reset_countersP13gmx_wallcyclel(ptr noundef %0, i64 noundef %1) #1 {
  %3 = alloca ptr, align 8
  %4 = alloca i64, align 8
  store ptr %0, ptr %3, align 8
  store i64 %1, ptr %4, align 8
  %5 = load ptr, ptr %3, align 8
  %6 = icmp eq ptr %5, null
  br i1 %6, label %7, label %8

7:                                                ; preds = %2
  br label %12

8:                                                ; preds = %2
  %9 = load i64, ptr %4, align 8
  %10 = load ptr, ptr %3, align 8
  %11 = getelementptr inbounds %struct.gmx_wallcycle, ptr %10, i32 0, i32 1
  store i64 %9, ptr %11, align 8
  br label %12

12:                                               ; preds = %8, %7
  ret void
}