; Function Attrs: mustprogress nofree norecurse nosync nounwind willreturn memory(argmem: write) uwtable
define void @_Z25wcycle_set_reset_countersP13gmx_wallcyclel(ptr noundef writeonly %0, i64 noundef %1) local_unnamed_addr #18 {
  %3 = icmp eq ptr %0, null
  br i1 %3, label %6, label %4

4:                                                ; preds = %2
  %5 = getelementptr inbounds i8, ptr %0, i64 1248
  store i64 %1, ptr %5, align 8
  br label %6

6:                                                ; preds = %2, %4
  ret void
}